target datalayout = "e-m:e-p270:32:32-p271:32:32-p272:64:64-i64:64-i128:128-f80:128-n8:16:32:64-S128"
target triple = "x86_64-pc-linux-gnu"

%struct.darktable_t = type { %struct.dt_codepath_t, i32, i32, ptr, ptr, ptr, ptr, ptr, ptr, ptr, ptr, ptr, ptr, ptr, ptr, ptr, ptr, ptr, ptr, ptr, ptr, ptr, ptr, ptr, ptr, ptr, ptr, ptr, ptr, ptr, [64 x %struct.dt_pthread_mutex_t], %struct.dt_pthread_mutex_t, %struct.dt_pthread_mutex_t, %struct.dt_pthread_mutex_t, %struct.dt_pthread_mutex_t, %struct.dt_pthread_mutex_t, ptr, ptr, ptr, ptr, ptr, ptr, ptr, ptr, ptr, ptr, ptr, ptr, ptr, %struct.dt_lua_state_t, ptr, double, ptr, i32, [47 x i32], i32, i32, ptr, ptr, %struct.dt_sys_resources_t, %struct.dt_backthumb_t, %struct.dt_gimp_t }
%struct.dt_codepath_t = type { i8, [3 x i8] }
%struct.dt_pthread_mutex_t = type { %union.pthread_mutex_t }
%union.pthread_mutex_t = type { %struct.__pthread_mutex_s }
%struct.__pthread_mutex_s = type { i32, i32, i32, i32, i32, i16, i16, %struct.__pthread_internal_list }
%struct.__pthread_internal_list = type { ptr, ptr }
%struct.dt_lua_state_t = type { i32 }
%struct.dt_sys_resources_t = type { i64, i64, ptr, ptr, i32 }
%struct.dt_backthumb_t = type { double, double, i32, i32, i32, i32 }
%struct.dt_gimp_t = type { i32, ptr, ptr, i32, i32 }
%struct.dt_action_t = type { i32, ptr, ptr, ptr, ptr, ptr }
%struct.dt_control_t = type { i32, ptr, %struct.dt_action_t, %struct.dt_action_t, %struct.dt_action_t, %struct.dt_action_t, %struct.dt_action_t, %struct.dt_action_t, %struct.dt_action_t, %struct.dt_action_t, %struct.dt_action_t, %struct.dt_action_t, %struct.dt_action_t, ptr, ptr, ptr, i32, ptr, i32, i32, ptr, ptr, [256 x i8], i32, double, i32, i32, i64, i32, i32, i32, double, double, i32, i32, i32, i32, i32, i32, [8 x [1000 x i8]], i32, i32, %struct.dt_pthread_mutex_t, i32, i32, [2 x [300 x i8]], i32, i32, %struct.dt_pthread_mutex_t, %struct.dt_pthread_mutex_t, %struct.dt_pthread_mutex_t, double, i32, i32, i32, %struct.dt_pthread_mutex_t, %struct.dt_pthread_mutex_t, %union.pthread_cond_t, i32, ptr, i64, i64, ptr, [5 x ptr], [5 x i64], %struct.dt_pthread_mutex_t, [3 x ptr], [3 x i8], [3 x i64], %struct.anon.0, %struct.anon.2 }
%union.pthread_cond_t = type { %struct.__pthread_cond_s }
%struct.__pthread_cond_s = type { %union.__atomic_wide_counter, %union.__atomic_wide_counter, [2 x i32], [2 x i32], i32, i32, [2 x i32] }
%union.__atomic_wide_counter = type { i64 }
%struct.anon.0 = type { ptr, i64, i64, double, %struct.dt_pthread_mutex_t, %struct.anon.1 }
%struct.anon.1 = type { ptr, ptr, ptr, ptr, ptr, ptr }
%struct.anon.2 = type { %struct.anon.3 }
%struct.anon.3 = type { ptr, ptr }

@darktable = external global %struct.darktable_t, align 8

; Function Attrs: inlinehint nounwind uwtable
define available_externally i32 @dt_atomic_get_int(ptr noundef %0) #4 {
  %2 = alloca ptr, align 8
  %3 = alloca i32, align 4
  store ptr %0, ptr %2, align 8, !tbaa !6
  %4 = load ptr, ptr %2, align 8, !tbaa !6
  %5 = load atomic i32, ptr %4 seq_cst, align 4
  store i32 %5, ptr %3, align 4
  %6 = load i32, ptr %3, align 4, !tbaa !10
  ret i32 %6
}

; Function Attrs: nounwind uwtable
define i32 @dt_control_running() #0 {
  %1 = alloca ptr, align 8
  %2 = alloca i32, align 4
  call void @llvm.lifetime.start.p0(i64 8, ptr %1) #10
  %3 = load ptr, ptr getelementptr inbounds nuw (%struct.darktable_t, ptr @darktable, i32 0, i32 12), align 8, !tbaa !120
  store ptr %3, ptr %1, align 8, !tbaa !73
  call void @llvm.lifetime.start.p0(i64 4, ptr %2) #10
  %4 = load ptr, ptr %1, align 8, !tbaa !73
  %5 = icmp ne ptr %4, null
  br i1 %5, label %6, label %10

6:                                                ; preds = %0
  %7 = load ptr, ptr %1, align 8, !tbaa !73
  %8 = getelementptr inbounds nuw %struct.dt_control_t, ptr %7, i32 0, i32 52
  %9 = call i32 @dt_atomic_get_int(ptr noundef %8)
  br label %11

10:                                               ; preds = %0
  br label %11

11:                                               ; preds = %10, %6
  %12 = phi i32 [ %9, %6 ], [ 0, %10 ]
  store i32 %12, ptr %2, align 4, !tbaa !10
  %13 = load i32, ptr %2, align 4, !tbaa !10
  %14 = icmp eq i32 %13, 1
  %15 = zext i1 %14 to i32
  call void @llvm.lifetime.end.p0(i64 4, ptr %2) #10
  call void @llvm.lifetime.end.p0(i64 8, ptr %1) #10
  ret i32 %15
}