; Function Attrs: mustprogress nofree norecurse nounwind willreturn memory(readwrite, inaccessiblemem: none) uwtable
define range(i32 0, 2) i32 @dt_control_running() local_unnamed_addr #8 {
  %1 = load ptr, ptr getelementptr inbounds nuw (i8, ptr @darktable, i64 88), align 8, !tbaa !107
  %.not = icmp eq ptr %1, null
  br i1 %.not, label %7, label %2

2:                                                ; preds = %0
  %3 = getelementptr inbounds nuw i8, ptr %1, i64 9744
  %4 = load atomic i32, ptr %3 seq_cst, align 4
  %5 = icmp eq i32 %4, 1
  %6 = zext i1 %5 to i32
  br label %7

7:                                                ; preds = %0, %2
  %8 = phi i32 [ %6, %2 ], [ 0, %0 ]
  ret i32 %8
}